(i__main__
LogFile
p0
(dp1
S'_installed_files'
p2
(dp3
S'../../../RootIO/RootIOTools/amd64_linux26/libRootIOTools.so'
p4
S'../../../InstallArea/amd64_linux26/lib/libRootIOTools.so'
p5
sS'../RootIO/RootIOTools/python'
p6
(dp7
S'../../../RootIO/RootIOTools/python/RootIOTools/__init__.py'
p8
S'../../../InstallArea/python/RootIOTools/__init__.py'
p9
ssS'../../RootIO/RootIOTools/RootIOTools'
p10
(dp11
S'../../../RootIO/RootIOTools/RootIOTools/MergingInputSvc.h'
p12
S'../../../InstallArea/include/RootIOTools/MergingInputSvc.h'
p13
sssb.